target datalayout = "e-m:e-p270:32:32-p271:32:32-p272:64:64-i64:64-i128:128-f80:128-n8:16:32:64-S128"
target triple = "x86_64-unknown-linux-gnu"

%"class.std::__shared_count" = type { ptr }
%"class.std::shared_ptr.39" = type { %"class.std::__shared_ptr.40" }
%"class.std::__shared_ptr.40" = type { ptr, %"class.std::__shared_count" }
%"class.facebook::velox::exec::WindowFunction" = type { ptr, %"class.std::shared_ptr.39", ptr, ptr, %"class.facebook::velox::SelectivityVector" }
%"class.facebook::velox::SelectivityVector" = type <{ %"class.std::vector.58", i32, i32, i32, %"class.std::optional.60", [2 x i8] }>
%"class.std::vector.58" = type { %"struct.std::_Vector_base.59" }
%"struct.std::_Vector_base.59" = type { %"struct.std::_Vector_base<unsigned long, std::allocator<unsigned long>>::_Vector_impl" }
%"struct.std::_Vector_base<unsigned long, std::allocator<unsigned long>>::_Vector_impl" = type { %"struct.std::_Vector_base<unsigned long, std::allocator<unsigned long>>::_Vector_impl_data" }
%"struct.std::_Vector_base<unsigned long, std::allocator<unsigned long>>::_Vector_impl_data" = type { ptr, ptr, ptr }
%"class.std::optional.60" = type { %"struct.std::_Optional_base.61" }
%"struct.std::_Optional_base.61" = type { %"struct.std::_Optional_payload.63" }
%"struct.std::_Optional_payload.63" = type { %"struct.std::_Optional_payload_base.64" }
%"struct.std::_Optional_payload_base.64" = type { %"union.std::_Optional_payload_base<bool>::_Storage", i8 }
%"union.std::_Optional_payload_base<bool>::_Storage" = type { %"struct.std::_Optional_payload_base<bool>::_Empty_byte" }
%"struct.std::_Optional_payload_base<bool>::_Empty_byte" = type { i8 }
%"class.boost::intrusive_ptr" = type { ptr }
%"class.facebook::velox::Buffer" = type { ptr, ptr, ptr, i64, i64, %"struct.std::atomic", i8, [2 x i64] }
%"struct.std::atomic" = type { %"struct.std::__atomic_base" }
%"struct.std::__atomic_base" = type { i32 }
%"class.std::__shared_ptr.107" = type { ptr, %"class.std::__shared_count" }
%"class.facebook::velox::functions::window::(anonymous namespace)::RankFunction.141" = type <{ %"class.facebook::velox::exec::WindowFunction", i32, i32, i64, i32, [4 x i8] }>

@_ZTIN8facebook5velox10BaseVectorE = external constant ptr
@_ZTIN8facebook5velox10FlatVectorIiEE = linkonce_odr constant { ptr, ptr, ptr } { ptr getelementptr inbounds (ptr, ptr @_ZTVN10__cxxabiv120__si_class_type_infoE, i64 2), ptr @_ZTSN8facebook5velox10FlatVectorIiEE, ptr @_ZTIN8facebook5velox12SimpleVectorIiEE }, comdat, align 8

; Function Attrs: mustprogress nounwind uwtable
define linkonce_odr noundef ptr @_ZNKSt12__shared_ptrIN8facebook5velox10BaseVectorELN9__gnu_cxx12_Lock_policyE2EE3getEv(ptr noundef nonnull align 8 dereferenceable(16) %this) #4 comdat align 2 {
entry:
  %this.addr = alloca ptr, align 8
  store ptr %this, ptr %this.addr, align 8
  %this1 = load ptr, ptr %this.addr, align 8
  %_M_ptr = getelementptr inbounds %"class.std::__shared_ptr.107", ptr %this1, i32 0, i32 0
  %0 = load ptr, ptr %_M_ptr, align 8
  ret ptr %0
}

; Function Attrs: mustprogress nounwind uwtable
define linkonce_odr noundef ptr @_ZNKSt19__shared_ptr_accessIN8facebook5velox10BaseVectorELN9__gnu_cxx12_Lock_policyE2ELb0ELb0EE6_M_getEv(ptr noundef nonnull align 1 dereferenceable(1) %this) #4 comdat align 2 {
entry:
  %this.addr = alloca ptr, align 8
  store ptr %this, ptr %this.addr, align 8
  %this1 = load ptr, ptr %this.addr, align 8
  %call = call noundef ptr @_ZNKSt12__shared_ptrIN8facebook5velox10BaseVectorELN9__gnu_cxx12_Lock_policyE2EE3getEv(ptr noundef nonnull align 8 dereferenceable(16) %this1) #13
  ret ptr %call
}

; Function Attrs: mustprogress nounwind uwtable
define linkonce_odr noundef ptr @_ZN8facebook5velox10BaseVector12asFlatVectorIiEEPNS0_10FlatVectorIT_EEv(ptr noundef nonnull align 8 dereferenceable(99) %this) #4 comdat align 2 {
entry:
  %this.addr = alloca ptr, align 8
  store ptr %this, ptr %this.addr, align 8
  %this1 = load ptr, ptr %this.addr, align 8
  %0 = icmp eq ptr %this1, null
  br i1 %0, label %dynamic_cast.null, label %dynamic_cast.notnull

dynamic_cast.notnull:                             ; preds = %entry
  %1 = call ptr @__dynamic_cast(ptr %this1, ptr @_ZTIN8facebook5velox10BaseVectorE, ptr @_ZTIN8facebook5velox10FlatVectorIiEE, i64 0) #13
  br label %dynamic_cast.end

dynamic_cast.null:                                ; preds = %entry
  br label %dynamic_cast.end

dynamic_cast.end:                                 ; preds = %dynamic_cast.null, %dynamic_cast.notnull
  %2 = phi ptr [ %1, %dynamic_cast.notnull ], [ null, %dynamic_cast.null ]
  ret ptr %2
}

; Function Attrs: mustprogress nounwind uwtable
define linkonce_odr noundef ptr @_ZNKSt19__shared_ptr_accessIN8facebook5velox10BaseVectorELN9__gnu_cxx12_Lock_policyE2ELb0ELb0EEptEv(ptr noundef nonnull align 1 dereferenceable(1) %this) #4 comdat align 2 {
entry:
  %this.addr = alloca ptr, align 8
  store ptr %this, ptr %this.addr, align 8
  %this1 = load ptr, ptr %this.addr, align 8
  %call = call noundef ptr @_ZNKSt19__shared_ptr_accessIN8facebook5velox10BaseVectorELN9__gnu_cxx12_Lock_policyE2ELb0ELb0EE6_M_getEv(ptr noundef nonnull align 1 dereferenceable(1) %this1) #13
  ret ptr %call
}

; Function Attrs: mustprogress nounwind uwtable
define linkonce_odr noundef ptr @_ZNK8facebook5velox6Buffer2asIiEEPKT_v(ptr noundef nonnull align 8 dereferenceable(64) %this) #4 comdat align 2 {
entry:
  %this.addr = alloca ptr, align 8
  store ptr %this, ptr %this.addr, align 8
  %this1 = load ptr, ptr %this.addr, align 8
  %data_ = getelementptr inbounds %"class.facebook::velox::Buffer", ptr %this1, i32 0, i32 2
  %0 = load ptr, ptr %data_, align 8
  ret ptr %0
}

; Function Attrs: mustprogress nounwind uwtable
define linkonce_odr noundef i64 @_ZNK8facebook5velox6Buffer4sizeEv(ptr noundef nonnull align 8 dereferenceable(64) %this) #4 comdat align 2 {
entry:
  %this.addr = alloca ptr, align 8
  store ptr %this, ptr %this.addr, align 8
  %this1 = load ptr, ptr %this.addr, align 8
  %size_ = getelementptr inbounds %"class.facebook::velox::Buffer", ptr %this1, i32 0, i32 3
  %0 = load i64, ptr %size_, align 8
  ret i64 %0
}

; Function Attrs: mustprogress nounwind uwtable
define linkonce_odr noundef ptr @_ZNK5boost13intrusive_ptrIN8facebook5velox6BufferEEptEv(ptr noundef nonnull align 8 dereferenceable(8) %this) #4 comdat align 2 {
entry:
  %this.addr = alloca ptr, align 8
  store ptr %this, ptr %this.addr, align 8
  %this1 = load ptr, ptr %this.addr, align 8
  %px = getelementptr inbounds %"class.boost::intrusive_ptr", ptr %this1, i32 0, i32 0
  %0 = load ptr, ptr %px, align 8
  ret ptr %0
}

; Function Attrs: mustprogress uwtable
define internal void @_ZN8facebook5velox9functions6window12_GLOBAL__N_112RankFunctionILNS2_8RankTypeE0EiE5applyERKN5boost13intrusive_ptrINS0_6BufferEEESC_SC_SC_RKNS0_17SelectivityVectorEiRKSt10shared_ptrINS0_10BaseVectorEE(ptr noundef nonnull align 8 dereferenceable(100) %this, ptr noundef nonnull align 8 dereferenceable(8) %peerGroupStarts, ptr noundef nonnull align 8 dereferenceable(8) %0, ptr noundef nonnull align 8 dereferenceable(8) %1, ptr noundef nonnull align 8 dereferenceable(8) %2, ptr noundef nonnull align 8 dereferenceable(38) %validRows, i32 noundef %resultOffset, ptr noundef nonnull align 8 dereferenceable(16) %result) unnamed_addr #0 align 2 {
entry:
  %this.addr = alloca ptr, align 8
  %peerGroupStarts.addr = alloca ptr, align 8
  %.addr = alloca ptr, align 8
  %.addr1 = alloca ptr, align 8
  %.addr2 = alloca ptr, align 8
  %validRows.addr = alloca ptr, align 8
  %resultOffset.addr = alloca i32, align 4
  %result.addr = alloca ptr, align 8
  %numRows = alloca i32, align 4
  %rawPeerStarts = alloca ptr, align 8
  %rawValues = alloca ptr, align 8
  %i = alloca i32, align 4
  %start = alloca i32, align 4
  store ptr %this, ptr %this.addr, align 8
  store ptr %peerGroupStarts, ptr %peerGroupStarts.addr, align 8
  store ptr %0, ptr %.addr, align 8
  store ptr %1, ptr %.addr1, align 8
  store ptr %2, ptr %.addr2, align 8
  store ptr %validRows, ptr %validRows.addr, align 8
  store i32 %resultOffset, ptr %resultOffset.addr, align 4
  store ptr %result, ptr %result.addr, align 8
  %this3 = load ptr, ptr %this.addr, align 8
  %3 = load ptr, ptr %peerGroupStarts.addr, align 8
  %call = call noundef ptr @_ZNK5boost13intrusive_ptrIN8facebook5velox6BufferEEptEv(ptr noundef nonnull align 8 dereferenceable(8) %3) #13
  %call4 = call noundef i64 @_ZNK8facebook5velox6Buffer4sizeEv(ptr noundef nonnull align 8 dereferenceable(64) %call)
  %div = udiv i64 %call4, 4
  %conv = trunc i64 %div to i32
  store i32 %conv, ptr %numRows, align 4
  %4 = load ptr, ptr %peerGroupStarts.addr, align 8
  %call5 = call noundef ptr @_ZNK5boost13intrusive_ptrIN8facebook5velox6BufferEEptEv(ptr noundef nonnull align 8 dereferenceable(8) %4) #13
  %call6 = call noundef ptr @_ZNK8facebook5velox6Buffer2asIiEEPKT_v(ptr noundef nonnull align 8 dereferenceable(64) %call5)
  store ptr %call6, ptr %rawPeerStarts, align 8
  %5 = load ptr, ptr %result.addr, align 8
  %call7 = call noundef ptr @_ZNKSt19__shared_ptr_accessIN8facebook5velox10BaseVectorELN9__gnu_cxx12_Lock_policyE2ELb0ELb0EEptEv(ptr noundef nonnull align 1 dereferenceable(1) %5) #13
  %call8 = call noundef ptr @_ZN8facebook5velox10BaseVector12asFlatVectorIiEEPNS0_10FlatVectorIT_EEv(ptr noundef nonnull align 8 dereferenceable(99) %call7)
  %call9 = call noundef ptr @_ZN8facebook5velox10FlatVectorIiE16mutableRawValuesEv(ptr noundef nonnull align 8 dereferenceable(200) %call8)
  store ptr %call9, ptr %rawValues, align 8
  store i32 0, ptr %i, align 4
  br label %for.cond

for.cond:                                         ; preds = %for.inc, %entry
  %6 = load i32, ptr %i, align 4
  %7 = load i32, ptr %numRows, align 4
  %cmp = icmp slt i32 %6, %7
  br i1 %cmp, label %for.body, label %for.end

for.body:                                         ; preds = %for.cond
  %8 = load ptr, ptr %rawPeerStarts, align 8
  %9 = load i32, ptr %i, align 4
  %idxprom = sext i32 %9 to i64
  %arrayidx = getelementptr inbounds i32, ptr %8, i64 %idxprom
  %10 = load i32, ptr %arrayidx, align 4
  store i32 %10, ptr %start, align 4
  %11 = load i32, ptr %start, align 4
  %currentPeerGroupStart_ = getelementptr inbounds %"class.facebook::velox::functions::window::(anonymous namespace)::RankFunction.141", ptr %this3, i32 0, i32 1
  %12 = load i32, ptr %currentPeerGroupStart_, align 8
  %cmp10 = icmp ne i32 %11, %12
  br i1 %cmp10, label %if.then, label %if.end

if.then:                                          ; preds = %for.body
  %13 = load i32, ptr %start, align 4
  %currentPeerGroupStart_11 = getelementptr inbounds %"class.facebook::velox::functions::window::(anonymous namespace)::RankFunction.141", ptr %this3, i32 0, i32 1
  store i32 %13, ptr %currentPeerGroupStart_11, align 8
  %previousPeerCount_ = getelementptr inbounds %"class.facebook::velox::functions::window::(anonymous namespace)::RankFunction.141", ptr %this3, i32 0, i32 2
  %14 = load i32, ptr %previousPeerCount_, align 4
  %conv12 = sext i32 %14 to i64
  %rank_ = getelementptr inbounds %"class.facebook::velox::functions::window::(anonymous namespace)::RankFunction.141", ptr %this3, i32 0, i32 3
  %15 = load i64, ptr %rank_, align 8
  %add = add nsw i64 %15, %conv12
  store i64 %add, ptr %rank_, align 8
  %previousPeerCount_13 = getelementptr inbounds %"class.facebook::velox::functions::window::(anonymous namespace)::RankFunction.141", ptr %this3, i32 0, i32 2
  store i32 0, ptr %previousPeerCount_13, align 4
  br label %if.end

if.end:                                           ; preds = %if.then, %for.body
  %rank_14 = getelementptr inbounds %"class.facebook::velox::functions::window::(anonymous namespace)::RankFunction.141", ptr %this3, i32 0, i32 3
  %16 = load i64, ptr %rank_14, align 8
  %conv15 = trunc i64 %16 to i32
  %17 = load ptr, ptr %rawValues, align 8
  %18 = load i32, ptr %resultOffset.addr, align 4
  %19 = load i32, ptr %i, align 4
  %add16 = add nsw i32 %18, %19
  %idxprom17 = sext i32 %add16 to i64
  %arrayidx18 = getelementptr inbounds i32, ptr %17, i64 %idxprom17
  store i32 %conv15, ptr %arrayidx18, align 4
  %previousPeerCount_19 = getelementptr inbounds %"class.facebook::velox::functions::window::(anonymous namespace)::RankFunction.141", ptr %this3, i32 0, i32 2
  %20 = load i32, ptr %previousPeerCount_19, align 4
  %add20 = add nsw i32 %20, 1
  store i32 %add20, ptr %previousPeerCount_19, align 4
  br label %for.inc

for.inc:                                          ; preds = %if.end
  %21 = load i32, ptr %i, align 4
  %inc = add nsw i32 %21, 1
  store i32 %inc, ptr %i, align 4
  br label %for.cond, !llvm.loop !12

for.end:                                          ; preds = %for.cond
  ret void
}